; Function Attrs: mustprogress nofree norecurse nosync nounwind willreturn memory(argmem: readwrite) uwtable
define void @_ZN6duckdb18DistinctStatisticsC2ENS_10unique_ptrINS_11HyperLogLogESt14default_deleteIS2_ELb1EEEmm(ptr noundef nonnull writeonly align 8 captures(none) dereferenceable(24) initializes((0, 24)) %0, ptr noundef captures(none) %1, i64 noundef %2, i64 noundef %3) unnamed_addr #12 align 2 {
  %5 = load i64, ptr %1, align 8, !tbaa !216
  store i64 %5, ptr %0, align 8, !tbaa !216
  store ptr null, ptr %1, align 8, !tbaa !216
  %6 = getelementptr inbounds nuw i8, ptr %0, i64 8
  store i64 %2, ptr %6, align 8, !tbaa !330
  %7 = getelementptr inbounds nuw i8, ptr %0, i64 16
  store i64 %3, ptr %7, align 8, !tbaa !330
  ret void
}